; Function Attrs: mustprogress uwtable
define void @_ZNK6casadi10ConstantDM14serialize_bodyERNS_17SerializingStreamE(ptr noundef nonnull align 8 dereferenceable(104) %0, ptr noundef nonnull align 8 dereferenceable(73) %1) unnamed_addr #3 align 2 personality ptr @__gxx_personality_v0 {
  %3 = alloca %"class.casadi::Matrix", align 8
  %4 = alloca %"class.std::__cxx11::basic_string", align 8
  %5 = alloca %"class.std::allocator.8", align 1
  tail call void @_ZNK6casadi6MXNode14serialize_bodyERNS_17SerializingStreamE(ptr noundef nonnull align 8 dereferenceable(64) %0, ptr noundef nonnull align 8 dereferenceable(73) %1)
  %6 = load ptr, ptr %0, align 8
  %7 = getelementptr inbounds i8, ptr %6, i64 424
  %8 = load ptr, ptr %7, align 8
  call void %8(ptr dead_on_unwind nonnull writable sret(%"class.casadi::Matrix") align 8 %3, ptr noundef nonnull align 8 dereferenceable(104) %0)
  call void @_ZNSaIcEC1Ev(ptr noundef nonnull align 1 dereferenceable(1) %5) #25
  %9 = invoke noundef ptr @_ZNSt7__cxx1112basic_stringIcSt11char_traitsIcESaIcEE13_M_local_dataEv(ptr noundef nonnull align 8 dereferenceable(32) %4)
          to label %.noexc unwind label %33

.noexc:                                           ; preds = %2
  invoke void @_ZNSt7__cxx1112basic_stringIcSt11char_traitsIcESaIcEE12_Alloc_hiderC1EPcRKS3_(ptr noundef nonnull align 8 dereferenceable(8) %4, ptr noundef %9, ptr noundef nonnull align 1 dereferenceable(1) %5)
          to label %.noexc6 unwind label %33

.noexc6:                                          ; preds = %.noexc
  invoke void @_ZNSt7__cxx1112basic_stringIcSt11char_traitsIcESaIcEE12_M_constructIPKcEEvT_S8_St20forward_iterator_tag(ptr noundef nonnull align 8 dereferenceable(32) %4, ptr noundef nonnull @.str.12, ptr noundef nonnull getelementptr inbounds ([21 x i8], ptr @.str.12, i64 0, i64 20))
          to label %_ZNSt7__cxx1112basic_stringIcSt11char_traitsIcESaIcEEC2IS3_EEPKcRKS3_.exit unwind label %10

10:                                               ; preds = %.noexc6
  %11 = landingpad { ptr, i32 }
          cleanup
  call void @_ZNSaIcED2Ev(ptr noundef nonnull align 1 dereferenceable(1) %4) #25
  br label %.body

_ZNSt7__cxx1112basic_stringIcSt11char_traitsIcESaIcEEC2IS3_EEPKcRKS3_.exit: ; preds = %.noexc6
  %12 = invoke noundef nonnull align 8 dereferenceable(24) ptr @_ZN6casadi6MatrixIdE8nonzerosEv(ptr noundef nonnull align 8 dereferenceable(40) %3)
          to label %13 unwind label %.loopexit.split-lp

13:                                               ; preds = %_ZNSt7__cxx1112basic_stringIcSt11char_traitsIcESaIcEEC2IS3_EEPKcRKS3_.exit
  %14 = getelementptr inbounds i8, ptr %1, i64 72
  %15 = load i8, ptr %14, align 8
  %16 = and i8 %15, 1
  %.not.i = icmp eq i8 %16, 0
  br i1 %.not.i, label %.noexc7, label %17

17:                                               ; preds = %13
  invoke void @_ZN6casadi17SerializingStream4packERKNSt7__cxx1112basic_stringIcSt11char_traitsIcESaIcEEE(ptr noundef nonnull align 8 dereferenceable(73) %1, ptr noundef nonnull align 8 dereferenceable(32) %4)
          to label %.noexc7 unwind label %.loopexit.split-lp

.noexc7:                                          ; preds = %17, %13
  invoke void @_ZN6casadi17SerializingStream8decorateEc(ptr noundef nonnull align 8 dereferenceable(73) %1, i8 noundef signext 86)
          to label %.noexc8 unwind label %.loopexit.split-lp

.noexc8:                                          ; preds = %.noexc7
  %18 = getelementptr inbounds i8, ptr %12, i64 8
  %19 = load ptr, ptr %18, align 8
  %20 = load ptr, ptr %12, align 8
  %21 = ptrtoint ptr %19 to i64
  %22 = ptrtoint ptr %20 to i64
  %23 = sub i64 %21, %22
  %24 = ashr exact i64 %23, 3
  invoke void @_ZN6casadi17SerializingStream4packEx(ptr noundef nonnull align 8 dereferenceable(73) %1, i64 noundef %24)
          to label %.noexc9 unwind label %.loopexit.split-lp

.noexc9:                                          ; preds = %.noexc8
  %25 = load ptr, ptr %12, align 8
  %26 = load ptr, ptr %18, align 8
  %.not9.i.i = icmp eq ptr %25, %26
  br i1 %.not9.i.i, label %_ZN6casadi17SerializingStream4packISt6vectorIdSaIdEEEEvRKNSt7__cxx1112basic_stringIcSt11char_traitsIcESaIcEEERT_.exit, label %.lr.ph.i.i

.lr.ph.i.i:                                       ; preds = %.noexc9, %.noexc10
  %.sroa.06.010.i.i = phi ptr [ %28, %.noexc10 ], [ %25, %.noexc9 ]
  %27 = load double, ptr %.sroa.06.010.i.i, align 8
  invoke void @_ZN6casadi17SerializingStream4packEd(ptr noundef nonnull align 8 dereferenceable(73) %1, double noundef %27)
          to label %.noexc10 unwind label %.loopexit

.noexc10:                                         ; preds = %.lr.ph.i.i
  %28 = getelementptr inbounds i8, ptr %.sroa.06.010.i.i, i64 8
  %.not.i.i = icmp eq ptr %28, %26
  br i1 %.not.i.i, label %_ZN6casadi17SerializingStream4packISt6vectorIdSaIdEEEEvRKNSt7__cxx1112basic_stringIcSt11char_traitsIcESaIcEEERT_.exit, label %.lr.ph.i.i

_ZN6casadi17SerializingStream4packISt6vectorIdSaIdEEEEvRKNSt7__cxx1112basic_stringIcSt11char_traitsIcESaIcEEERT_.exit: ; preds = %.noexc10, %.noexc9
  call void @_ZNSt7__cxx1112basic_stringIcSt11char_traitsIcESaIcEED1Ev(ptr noundef nonnull align 8 dereferenceable(32) %4) #25
  call void @_ZNSaIcED1Ev(ptr noundef nonnull align 1 dereferenceable(1) %5) #25
  %29 = getelementptr inbounds i8, ptr %3, i64 16
  %30 = load ptr, ptr %29, align 8
  %.not.i.i.i.i = icmp eq ptr %30, null
  br i1 %.not.i.i.i.i, label %_ZN6casadi6MatrixIdED2Ev.exit, label %31

31:                                               ; preds = %_ZN6casadi17SerializingStream4packISt6vectorIdSaIdEEEEvRKNSt7__cxx1112basic_stringIcSt11char_traitsIcESaIcEEERT_.exit
  call void @_ZdlPv(ptr noundef nonnull %30) #28
  br label %_ZN6casadi6MatrixIdED2Ev.exit

_ZN6casadi6MatrixIdED2Ev.exit:                    ; preds = %_ZN6casadi17SerializingStream4packISt6vectorIdSaIdEEEEvRKNSt7__cxx1112basic_stringIcSt11char_traitsIcESaIcEEERT_.exit, %31
  %32 = getelementptr inbounds i8, ptr %3, i64 8
  call void @_ZN6casadi12SharedObjectD2Ev(ptr noundef nonnull align 8 dereferenceable(8) %32) #25
  ret void

33:                                               ; preds = %.noexc, %2
  %34 = landingpad { ptr, i32 }
          cleanup
  br label %.body

.loopexit:                                        ; preds = %.lr.ph.i.i
  %lpad.loopexit = landingpad { ptr, i32 }
          cleanup
  br label %35

.loopexit.split-lp:                               ; preds = %_ZNSt7__cxx1112basic_stringIcSt11char_traitsIcESaIcEEC2IS3_EEPKcRKS3_.exit, %17, %.noexc7, %.noexc8
  %lpad.loopexit.split-lp = landingpad { ptr, i32 }
          cleanup
  br label %35

35:                                               ; preds = %.loopexit.split-lp, %.loopexit
  %lpad.phi = phi { ptr, i32 } [ %lpad.loopexit, %.loopexit ], [ %lpad.loopexit.split-lp, %.loopexit.split-lp ]
  call void @_ZNSt7__cxx1112basic_stringIcSt11char_traitsIcESaIcEED1Ev(ptr noundef nonnull align 8 dereferenceable(32) %4) #25
  br label %.body

.body:                                            ; preds = %33, %10, %35
  %.pn = phi { ptr, i32 } [ %lpad.phi, %35 ], [ %34, %33 ], [ %11, %10 ]
  call void @_ZNSaIcED1Ev(ptr noundef nonnull align 1 dereferenceable(1) %5) #25
  call void @_ZN6casadi6MatrixIdED2Ev(ptr noundef nonnull align 8 dereferenceable(40) %3) #25
  resume { ptr, i32 } %.pn
}